target datalayout = "e-m:e-p270:32:32-p271:32:32-p272:64:64-i64:64-i128:128-f80:128-n8:16:32:64-S128"
target triple = "x86_64-pc-linux-gnu"

%struct.SDL_HIDAPI_DeviceDriver = type { ptr, i8, ptr, ptr, ptr, ptr, ptr, ptr, ptr, ptr, ptr, ptr, ptr, ptr, ptr, ptr, ptr, ptr, ptr }
%struct.SDL_AtomicInt = type { i32 }
%struct.SDL_HIDAPI_Device = type { ptr, ptr, ptr, ptr, i16, i16, i16, ptr, %struct.SDL_GUID, i32, i32, i32, i32, i16, i16, i8, i32, i32, i32, ptr, ptr, ptr, ptr, %struct.SDL_AtomicInt, i32, ptr, i8, i8, i8, ptr, i32, ptr, ptr }
%struct.SDL_GUID = type { [16 x i8] }

@SDL_HIDAPI_devices = internal global ptr null, align 8
@shutting_down = internal global i8 0, align 1
@SDL_HIDAPI_change_count = internal global i32 0, align 4
@initialized = internal global i8 0, align 1
@.str.13 = private unnamed_addr constant [37 x i8] c"SDL_JOYSTICK_HIDAPI_COMBINE_JOY_CONS\00", align 1
@.str.14 = private unnamed_addr constant [20 x i8] c"SDL_JOYSTICK_HIDAPI\00", align 1

; Function Attrs: nounwind uwtable
define internal void @HIDAPI_JoystickQuit() #0 {
  %1 = alloca i32, align 4
  %2 = alloca ptr, align 8
  %3 = alloca ptr, align 8
  call void @llvm.lifetime.start.p0(i64 4, ptr %1) #7
  call void @SDL_AssertJoysticksLocked()
  store i8 1, ptr @shutting_down, align 1
  call void @SDL_HIDAPI_QuitRumble()
  br label %4

4:                                                ; preds = %38, %0
  %5 = load ptr, ptr @SDL_HIDAPI_devices, align 8
  %6 = icmp ne ptr %5, null
  br i1 %6, label %7, label %39

7:                                                ; preds = %4
  call void @llvm.lifetime.start.p0(i64 8, ptr %2) #7
  %8 = load ptr, ptr @SDL_HIDAPI_devices, align 8
  store ptr %8, ptr %2, align 8
  %9 = load ptr, ptr %2, align 8
  %10 = getelementptr inbounds nuw %struct.SDL_HIDAPI_Device, ptr %9, i32 0, i32 29
  %11 = load ptr, ptr %10, align 8
  %12 = icmp ne ptr %11, null
  br i1 %12, label %13, label %36

13:                                               ; preds = %7
  %14 = load ptr, ptr %2, align 8
  %15 = getelementptr inbounds nuw %struct.SDL_HIDAPI_Device, ptr %14, i32 0, i32 29
  %16 = load ptr, ptr %15, align 8
  store ptr %16, ptr %2, align 8
  store i32 0, ptr %1, align 4
  br label %17

17:                                               ; preds = %31, %13
  %18 = load i32, ptr %1, align 4
  %19 = load ptr, ptr %2, align 8
  %20 = getelementptr inbounds nuw %struct.SDL_HIDAPI_Device, ptr %19, i32 0, i32 30
  %21 = load i32, ptr %20, align 8
  %22 = icmp slt i32 %18, %21
  br i1 %22, label %23, label %34

23:                                               ; preds = %17
  %24 = load ptr, ptr %2, align 8
  %25 = getelementptr inbounds nuw %struct.SDL_HIDAPI_Device, ptr %24, i32 0, i32 31
  %26 = load ptr, ptr %25, align 8
  %27 = load i32, ptr %1, align 4
  %28 = sext i32 %27 to i64
  %29 = getelementptr inbounds ptr, ptr %26, i64 %28
  %30 = load ptr, ptr %29, align 8
  call void @HIDAPI_DelDevice(ptr noundef %30)
  br label %31

31:                                               ; preds = %23
  %32 = load i32, ptr %1, align 4
  %33 = add nsw i32 %32, 1
  store i32 %33, ptr %1, align 4
  br label %17, !llvm.loop !33

34:                                               ; preds = %17
  %35 = load ptr, ptr %2, align 8
  call void @HIDAPI_DelDevice(ptr noundef %35)
  br label %38

36:                                               ; preds = %7
  %37 = load ptr, ptr %2, align 8
  call void @HIDAPI_DelDevice(ptr noundef %37)
  br label %38

38:                                               ; preds = %36, %34
  call void @llvm.lifetime.end.p0(i64 8, ptr %2) #7
  br label %4, !llvm.loop !34

39:                                               ; preds = %4
  br label %40

40:                                               ; preds = %39
  br label %41

41:                                               ; preds = %40
  br label %42

42:                                               ; preds = %41
  store i32 0, ptr %1, align 4
  br label %43

43:                                               ; preds = %56, %42
  %44 = load i32, ptr %1, align 4
  %45 = sext i32 %44 to i64
  %46 = icmp ult i64 %45, 22
  br i1 %46, label %47, label %59

47:                                               ; preds = %43
  call void @llvm.lifetime.start.p0(i64 8, ptr %3) #7
  %48 = load i32, ptr %1, align 4
  %49 = sext i32 %48 to i64
  %50 = getelementptr inbounds [22 x ptr], ptr @SDL_HIDAPI_drivers, i64 0, i64 %49
  %51 = load ptr, ptr %50, align 8
  store ptr %51, ptr %3, align 8
  %52 = load ptr, ptr %3, align 8
  %53 = getelementptr inbounds nuw %struct.SDL_HIDAPI_DeviceDriver, ptr %52, i32 0, i32 3
  %54 = load ptr, ptr %53, align 8
  %55 = load ptr, ptr %3, align 8
  call void %54(ptr noundef @SDL_HIDAPIDriverHintChanged, ptr noundef %55)
  call void @llvm.lifetime.end.p0(i64 8, ptr %3) #7
  br label %56

56:                                               ; preds = %47
  %57 = load i32, ptr %1, align 4
  %58 = add nsw i32 %57, 1
  store i32 %58, ptr %1, align 4
  br label %43, !llvm.loop !35

59:                                               ; preds = %43
  call void @SDL_RemoveHintCallback_REAL(ptr noundef @.str.13, ptr noundef @SDL_HIDAPIDriverHintChanged, ptr noundef null)
  call void @SDL_RemoveHintCallback_REAL(ptr noundef @.str.14, ptr noundef @SDL_HIDAPIDriverHintChanged, ptr noundef null)
  %60 = call i32 @SDL_hid_exit_REAL()
  store i32 0, ptr @SDL_HIDAPI_change_count, align 4
  store i8 0, ptr @shutting_down, align 1
  store i8 0, ptr @initialized, align 1
  call void @llvm.lifetime.end.p0(i64 4, ptr %1) #7
  ret void
}