; Function Attrs: nounwind uwtable
define internal void @HIDAPI_JoystickQuit() #0 {
  tail call void @SDL_AssertJoysticksLocked() #9
  store i1 true, ptr @shutting_down, align 1
  tail call void @SDL_HIDAPI_QuitRumble() #9
  %1 = load ptr, ptr @SDL_HIDAPI_devices, align 8
  %.not19 = icmp eq ptr %1, null
  br i1 %.not19, label %.preheader.preheader, label %.lr.ph21

.lr.ph21:                                         ; preds = %0, %._crit_edge
  %2 = phi ptr [ %16, %._crit_edge ], [ %1, %0 ]
  %3 = getelementptr inbounds nuw i8, ptr %2, i64 160
  %4 = load ptr, ptr %3, align 8
  %.not16 = icmp eq ptr %4, null
  br i1 %.not16, label %._crit_edge, label %.preheader17

.preheader17:                                     ; preds = %.lr.ph21
  %5 = getelementptr inbounds nuw i8, ptr %4, i64 168
  %6 = load i32, ptr %5, align 8
  %7 = icmp sgt i32 %6, 0
  br i1 %7, label %.lr.ph, label %._crit_edge

.lr.ph:                                           ; preds = %.preheader17
  %8 = getelementptr inbounds nuw i8, ptr %4, i64 176
  br label %9

9:                                                ; preds = %.lr.ph, %9
  %indvars.iv = phi i64 [ 0, %.lr.ph ], [ %indvars.iv.next, %9 ]
  %10 = load ptr, ptr %8, align 8
  %11 = getelementptr inbounds nuw ptr, ptr %10, i64 %indvars.iv
  %12 = load ptr, ptr %11, align 8
  tail call fastcc void @HIDAPI_DelDevice(ptr noundef %12)
  %indvars.iv.next = add nuw nsw i64 %indvars.iv, 1
  %13 = load i32, ptr %5, align 8
  %14 = sext i32 %13 to i64
  %15 = icmp slt i64 %indvars.iv.next, %14
  br i1 %15, label %9, label %._crit_edge, !llvm.loop !38

._crit_edge:                                      ; preds = %9, %.lr.ph21, %.preheader17
  %.sink = phi ptr [ %4, %.preheader17 ], [ %2, %.lr.ph21 ], [ %4, %9 ]
  tail call fastcc void @HIDAPI_DelDevice(ptr noundef nonnull %.sink)
  %16 = load ptr, ptr @SDL_HIDAPI_devices, align 8
  %.not = icmp eq ptr %16, null
  br i1 %.not, label %.preheader.preheader, label %.lr.ph21, !llvm.loop !39

.preheader.preheader:                             ; preds = %._crit_edge, %0
  br label %.preheader

.preheader:                                       ; preds = %.preheader.preheader, %.preheader
  %indvars.iv24 = phi i64 [ %indvars.iv.next25, %.preheader ], [ 0, %.preheader.preheader ]
  %17 = getelementptr inbounds nuw [22 x ptr], ptr @SDL_HIDAPI_drivers, i64 0, i64 %indvars.iv24
  %18 = load ptr, ptr %17, align 8
  %19 = getelementptr inbounds nuw i8, ptr %18, i64 24
  %20 = load ptr, ptr %19, align 8
  tail call void %20(ptr noundef nonnull @SDL_HIDAPIDriverHintChanged, ptr noundef %18) #9
  %indvars.iv.next25 = add nuw nsw i64 %indvars.iv24, 1
  %exitcond.not = icmp eq i64 %indvars.iv.next25, 22
  br i1 %exitcond.not, label %21, label %.preheader, !llvm.loop !40

21:                                               ; preds = %.preheader
  tail call void @SDL_RemoveHintCallback_REAL(ptr noundef nonnull @.str.13, ptr noundef nonnull @SDL_HIDAPIDriverHintChanged, ptr noundef null) #9
  tail call void @SDL_RemoveHintCallback_REAL(ptr noundef nonnull @.str.14, ptr noundef nonnull @SDL_HIDAPIDriverHintChanged, ptr noundef null) #9
  %22 = tail call i32 @SDL_hid_exit_REAL() #9
  store i32 0, ptr @SDL_HIDAPI_change_count, align 4
  store i1 false, ptr @shutting_down, align 1
  store i1 false, ptr @initialized, align 1
  ret void
}